(lp0
Vmagnetic
p1
aVsleet
p2
aVneutralization
p3
aVreaction
p4
aVhanging
p5
aVhalogen
p6
aVconservation
p7
aVenergy
p8
aVhuman
p9
aVgenome
p10
aVproject
p11
aVdivergent
p12
aVhormone
p13
aVgeology
p14
aVregional
p15
aVpigment
p16
aVreplication
p17
aVelectronics
p18
aValpine
p19
aVdip-slip
p20
aVloess
p21
aVsolution
p22
aVhumidity
p23
aVvector
p24
aVvivipary
p25
aVcarnivore
p26
aVforce
p27
aVinfancy
p28
aVinfiltration
p29
aVaromatic
p30
aVhydrocarbon
p31
aVgolgi
p32
aVapparatus
p33
aVthunder
p34
aVfossil
p35
aVchromosphere
p36
aVlife
p37
aVscience
p38
aVparticulate
p39
aVspecialist
p40
aVniche
p41
aVbarometer
p42
aVlithosphere
p43
aVresidual
p44
aVdeposition
p45
aVactive
p46
aVpancreas
p47
aVlight-year
p48
aVultraviolet
p49
aVlight
p50
aVmolecular
p51
aVclock
p52
aVmutagen
p53
aVsexually
p54
aVtransmitted
p55
aVinfection
p56
aVsemicircular
p57
aVcanal
p58
aVabsolute
p59
aVdating
p60
aVtopography
p61
aVprojection
p62
aVvisible
p63
aVrifting
p64
aVno-till
p65
aVlandscape
p66
aVnewtons
p67
aVthird
p68
aVmotion
p69
aVchromosome
p70
aVcrocodilian
p71
aVground
p72
aVtissue
p73
aVpistil
p74
aVcomposite
p75
aVohms
p76
aVmeteorologist
p77
aVdeciduous
p78
aVwarm
p79
aVbiotic
p80
aVhole
p81
aVmarsupial
p82
aVcerebellum
p83
aVdeoxyribonucleic
p84
aVacid
p85
aVfallopian
p86
aVtube
p87
aVdeferens
p88
aVcytokinesis
p89
aVwork
p90
aVeclipse
p91
aVwaterborne
p92
aVdisease
p93
aVroot
p94
aVhemoglobin
p95
aVgenetic
p96
aVtransfer
p97
aVabsolute
p98
aVmetalloid
p99
aVglobular
p100
aVmachine
p101
aVmagnetic
p102
aVdomain
p103
aVfever
p104
aVhuman
p105
aVimmunodeficiency
p106
aVvirus
p107
aVcardiovascular
p108
aVdisease
p109
aVspectrometer
p110
aVarch
p111
aVcentriole
p112
aVgreen
p113
aVsaturated
p114
aVsolution
p115
aVultraviolet
p116
aVvapor
p117
aVorder
p118
aVwind
p119
aVfetus
p120
aVdeform
p121
aVhibernation
p122
aVadolescence
p123
aVthrust
p124
aVadrenal
p125
aVgland
p126
aVurination
p127
aVanemia
p128
aVshear
p129
aVglycolysis
p130
aVnerve
p131
aVimpulse
p132
aVatherosclerosis
p133
aVbang
p134
aVrocks
p135
aVpopulation
p136
aVdensity
p137
aVvolcano
p138
aVbone
p139
aVmean
p140
aVkidney
p141
aVfailure
p142
aVtelescope
p143
aVmanipulated
p144
aVvariable
p145
aVacid
p146
aVrain
p147
aVmuscular
p148
aVsystem
p149
aVwave
p150
aVinterference
p151
aVlarva
p152
aVlarvae,
p153
aVplural
p154
aVendocrine
p155
aVsystem
p156
aVopen
p157
aVtonsil
p158
aVtelophase
p159
aVautotroph
p160
aVemphysema
p161
aValkane
p162
aVstrata
p163
aVflatworm
p164
aVcoevolution
p165
aVlarge
p166
aVintestine
p167
aVsilicate
p168
aVribonucleic
p169
aVloudness
p170
aVfrugivore
p171
aVheterotroph
p172
aVhearing
p173
aVcalorie
p174
aVconcussion
p175
aVocean
p176
aVacidification
p177
aVtunicate
p178
aVglucose
p179
aVinterphase
p180
aVchloroplast
p181
aVsaprotroph
p182
aVtheory
p183
aVevolution
p184
aVnatural
p185
aVselection
p186
aVluminescence
p187
aVsubduction
p188
aVdistance
p189
aVpotential
p190
aVenergy
p191
aVmeteorology
p192
aVmonotreme
p193
aVshower
p194
aVmatter
p195
aVconservation
p196
aVcharge
p197
aVplasmid
p198
aVfaradays
p199
aVsupercontinent
p200
aVnucleic
p201
aVacid
p202
aVpollination
p203
aVpopulation
p204
aVpyramid
p205
aVspectrum
p206
aVseed
p207
aVfacilitated
p208
aVdiffusion
p209
aVionic
p210
aVbond
p211
aVsnow
p212
aVreactivity
p213
aVprimary
p214
aVsuccession
p215
aVforces
p216
aVcoelom
p217
aVcarbon
p218
aVcycle
p219
aVopposable
p220
aVthumb
p221
aVgenetic
p222
aVcode
p223
aVdrought
p224
aVmaria
p225
aVobservation
p226
aVmetal
p227
aVmating
p228
aVspongy
p229
aVbone
p230
aVplanetary
p231
aVaquatic
p232
aVgravitropism
p233
aVrayleigh
p234
aVprobe
p235
aVinfrared
p236
aVsoluble
p237
aVgauge
p238
aVearth
p239
aVgeyser
p240
aVherbivore
p241
aVacne
p242
aVsocial
p243
aVanimal
p244
aVplate
p245
aVmixture
p246
aVfluid
p247
aVcoast
p248
aVresponding
p249
aVvariable
p250
aVextrusive
p251
aVcolloid
p252
aVmicroscope
p253
aVmercator
p254
aVbinary
p255
aVfission
p256
aVfreshwater
p257
aVwave
p258
aVfrequency
p259
aVdecomposition
p260
aVreaction
p261
aVnocturnal
p262
aVhydrocarbon
p263
aVoceanic
p264
aVcapacity
p265
aVrings
p266
aVcooperation
p267
aVsolenoid
p268
aVreproduction
p269
aVlymphocyte
p270
aVvitamin
p271
aVcarbon
p272
aVgalpagos
p273
aVislands
p274
aVclimate
p275
aVpoint-source
p276
aVpollution
p277
aVirregular
p278
aVfault
p279
aVlife
p280
aVcycle
p281
aVcartilage
p282
aVmicroevolution
p283
aVmagnetosphere
p284
aVferromagnetic
p285
aVmaterial
p286
aVcodon
p287
aVcell
p288
aVmembrane
p289
aVmechanical
p290
aVwave
p291
aVgenetic
p292
aVdrift
p293
aVpregnancy
p294
aVchemical
p295
aVenergy
p296
aVjoule
p297
aVoceanography
p298
aVs-waves
p299
aVradiative
p300
aVbasin
p301
aVrecessive
p302
aVspit
p303
aVabyssal
p304
aVbacteria
p305
aVbacterium,
p306
aVsingular
p307
aVmacroevolution
p308
aVannelid
p309
aVasthenosphere
p310
aVneap
p311
aVproperty
p312
aVpascals
p313
aVdiaphragm
p314
aVureter
p315
aVtissue
p316
aVcone
p317
aVimmune
p318
aVsystem
p319
aVmechanical
p320
aVadvantage
p321
aVparasitism
p322
aVphenotype
p323
aVrebound
p324
aVindependent
p325
aVsatellite
p326
aVcellular
p327
aVrespiration
p328
aVcircadian
p329
aVrhythm
p330
aVrain
p331
aVendocrine
p332
aVgland
p333
aVmolting
p334
aVcycle
p335
aVantibiotic
p336
aVresistance
p337
aVintrusion
p338
aVheterozygote
p339
aVcontact
p340
aVwedging
p341
aVpseudocoelom
p342
aVsequestration
p343
aVgravity
p344
aVreproductive
p345
aVsystem
p346
aVscattering
p347
aVbiome
p348
aVinsectivore
p349
aVgenetic
p350
aVdisorder
p351
aVprecambrian
p352
aVtranslucent
p353
aVallele
p354
aVplasma
p355
aVelevation
p356
aVzooplankton
p357
aVchitin
p358
aVfusion
p359
aVshadow
p360
aVgibbous
p361
aVmelting
p362
aVsystemic
p363
aVcirculation
p364
aVgroundwater
p365
aVvalence
p366
aVradio
p367
aVwave
p368
aVcirrus
p369
aVprokaryotic
p370
aVcell
p371
aVmesosphere
p372
aVdead
p373
aVsponge
p374
aVcreep
p375
aVorbiter
p376
aVelectromagnetic
p377
aVunit
p378
aVsyphilis
p379
aVinfectious
p380
aVdisease
p381
aVcompound
p382
aVmachine
p383
aVhertz
p384
aVcore
p385
aVmicrowaves
p386
aVconstructive
p387
aVdiploid
p388
aVcoral
p389
aVhorizon
p390
aVfoodborne
p391
aVillness
p392
aVnerve
p393
aVdigestion
p394
aVmantle
p395
aVcompression
p396
aVvaccination
p397
aValtitude
p398
aVtransform
p399
aVconservation
p400
aVmetabolism
p401
aVarchaea
p402
aVdomain
p403
aVheat
p404
aVcatalyst
p405
aVsolar
p406
aVmelanin
p407
aVcardiac
p408
aVmuscle
p409
aVmyopia
p410
aVbacteria
p411
aVdomain
p412
aVmass
p413
aVextinction
p414
aVcrystal
p415
aVendothermy
p416
aVconvergent
p417
aVcytoskeleton
p418
aVmold
p419
aVphysical
p420
aVglacier
p421
aVflood
p422
aVerosion
p423
aVnutrition
p424
aVfacts
p425
aVlabel
p426
aVsuperposition
p427
aVtransported
p428
aVvariable
p429
aVcommensalism
p430
aVballoon
p431
aVinnate
p432
aVbehavior
p433
aVradioactivity
p434
aVhemophilia
p435
aVinterval
p436
aVelectric
p437
aVcircuit
p438
aVgonorrhea
p439
aVtime
p440
aVmeander
p441
aVirrigation
p442
aVchain
p443
aVglobal
p444
aVfocus
p445
aVelectric
p446
aVmotor
p447
aVurinary
p448
aVsystem
p449
aVmicrowave
p450
aVsubarctic
p451
aVconnective
p452
aVtissue
p453
aVsystem
p454
aVzone
p455
aVcrater
p456
aVgnomonic
p457
aVscientific
p458
aVnotation
p459
aVyeast
p460
aVlancelet
p461
aVblood
p462
aVtype
p463
aVcompetitive
p464
aVexclusion
p465
aVprinciple
p466
aVlevel
p467
aVlevee
p468
aVmagnet
p469
aVelectric
p470
aVfield
p471
aVcombustion
p472
aVengine
p473
aVseismogram
p474
aVlogistic
p475
aVgrowth
p476
aVlever
p477
aVrevolution
p478
aVroundworm
p479
aVcrescent
p480
aVhyperopia
p481
aVanimal
p482
aVbehavior
p483
aVsunspots
p484
aVcurrent
p485
aVsyncline
p486
aVincomplete
p487
aVmetamorphosis
p488
aVcarnivorous
p489
aVplant
p490
aVwindchill
p491
aValkaline
p492
aVplucking
p493
aVwater
p494
aVmeteorites
p495
aVmagnetism
p496
aVanimal
p497
aVkingdom
p498
aVearthquake
p499
aVchange
p500
aVnuclear
p501
aVfusion
p502
aVresonance
p503
aVnonmetal
p504
aVsexual
p505
aVreproduction
p506
aVabiotic
p507
aVfactor
p508
aVlove
p509
aVsebum
p510
aVwater
p511
aVpollution
p512
aVrenewable
p513
aVresource
p514
aVthermosphere
p515
aVprey
p516
aVelastic
p517
aVforce
p518
aVdiurnal
p519
aVtundra
p520
aVprostate
p521
aVgland
p522
aVelectric
p523
aVinsulator
p524
aVhalf-life
p525
aVlongitude
p526
aVprojectile
p527
aVmotion
p528
aVstreak
p529
aVheart
p530
aVisomer
p531
aVstream
p532
aVspeed
p533
aVlight
p534
aVgymnosperm
p535
aVallele
p536
aVfrequency
p537
aVsandbar
p538
aVosmosis
p539
aVhaploid
p540
aVswim
p541
aVbladder
p542
aVrays
p543
aVchemical
p544
aVtill
p545
aVfield
p546
aVstudy
p547
aVcoronary
p548
aVheart
p549
aVdisease
p550
aVproduct
p551
aVspot
p552
aVexosphere
p553
aVlongitudinal
p554
aVwave
p555
aVpunnett
p556
aVsquare
p557
aVvesicle
p558
aVtransport
p559
aVdestructive
p560
aVjellyfish
p561
aVtemperate
p562
aVpulley
p563
aVstress
p564
aVnatural
p565
aVliquid
p566
aVmicroclimate
p567
aVcorona
p568
aVradiometric
p569
aVfreshwater
p570
aVbiome
p571
aVshield
p572
aVbrain
p573
aVlast
p574
aVuniversal
p575
aVcommon
p576
aVancestor
p577
aVluca
p578
aVnitrogen
p579
aVpitch
p580
aVsignificant
p581
aVfigures
p582
aVcold
p583
aVgroup
p584
aVkidney
p585
aVstone
p586
aVsuspension
p587
aVmain
p588
aValluvial
p589
aVsolubility
p590
aVautosome
p591
aVfood
p592
aVcourtship
p593
aVinversion
p594
aVproteins
p595
aVcropping
p596
aVinsight
p597
aVlearning
p598
aVdomain
p599
aVgene
p600
aVflow
p601
aVadenosine
p602
aVtriphosphate
p603
aVyear
p604
aVwavelength
p605
aVspace
p606
aVnucleic
p607
aVacids
p608
aVlearned
p609
aVbehavior
p610
aVtheory
p611
aVisotope
p612
aVquark
p613
aVmycorrhiza
p614
aVbrachiation
p615
aVmarine
p616
aVphototropism
p617
aVelectromagnetic
p618
aVinduction
p619
aVlanguage
p620
aVflare
p621
aVtransition
p622
aVmotion
p623
aVlactation
p624
aVoxbow
p625
aVchildhood
p626
aVelectric
p627
aVconductor
p628
aVdecibel
p629
aVsymmetry
p630
aVgenital
p631
aVwarts
p632
aVpaleontologist
p633
aVengineer
p634
aVgenotype
p635
aVtraction
p636
aVcalvin
p637
aVcycle
p638
aVexoskeleton
p639
aVnon-point
p640
aVsynthesis
p641
aVreaction
p642
aVexothermic
p643
aVreaction
p644
aVpopulation
p645
aVphotosynthesis
p646
aVwheel
p647
aVaxle
p648
aVchlorophyll
p649
aVgene
p650
aVtherapy
p651
aVdoppler
p652
aVeffect
p653
aVstratosphere
p654
aVcell
p655
aVwall
p656
aVlight
p657
aVreactions
p658
aVribonucleic
p659
aVacid
p660
aVdemographic
p661
aVtransition
p662
aVtranscription
p663
aVautoimmune
p664
aVdisease
p665
aVlongshore
p666
aVpotential
p667
aVfracture
p668
aVthermometer
p669
aVdetritivore
p670
aVsickle-cell
p671
aVdisease
p672
aVnormal
p673
aVtornado
p674
aVmolecule
p675
aVinvertebrate
p676
aVsustainable
p677
aVphotochemical
p678
aVtendon
p679
aVunsaturated
p680
aVsolution
p681
aVradioactive
p682
aVhemisphere
p683
aVactivation
p684
aVenergy
p685
aVexponential
p686
aVgrowth
p687
aVgall
p688
aVbladder
p689
aVsalt
p690
aVslope
p691
aVcloaca
p692
aVmitochondrion
p693
aVmitochondria,
p694
aVplural
p695
aVdelta
p696
aVfriction
p697
aVelectric
p698
aVforce
p699
aVumbilical
p700
aVcord
p701
aVbasic
p702
aVscience
p703
aVcovalent
p704
aVbond
p705
aVconduction
p706
aVplume
p707
aVchemical
p708
aVbond
p709
aVarthropod
p710
aVblack
p711
aVlipids
p712
aVtrans
p713
aVfreezing
p714
aVarchimedes
p715
aVvaporization
p716
aVsecondary
p717
aVsynapse
p718
aVresource
p719
aVintegumentary
p720
aVsystem
p721
aVreplication
p722
aVectothermy
p723
aVcochlea
p724
aVstimulus
p725
aVstimuli,
p726
aVplural
p727
aVsonar
p728
aVvision
p729
aVseamount
p730
aVconservation
p731
aVmomentum
p732
aVspore
p733
aVradioactive
p734
aVdating
p735
aVrelative
p736
aVinsoluble
p737
aVbernoullis
p738
aVmoons
p739
aVsupernova
p740
aVdome
p741
aVreflex
p742
aVbehavior
p743
aVelectric
p744
aVgenerator
p745
aVcomet
p746
aValternation
p747
aVgenerations
p748
aVcancer
p749
aVoccluded
p750
aVperiod
p751
aVcranium
p752
aVbiofilm
p753
aVextinct
p754
aVinfrared
p755
aVlight
p756
aVdrug
p757
aVaddiction
p758
aVwest
p759
aVtropical
p760
aVincubation
p761
aVdeposited
p762
aVintraplate
p763
aVecological
p764
aVsuccession
p765
aVphoton
p766
aVsound
p767
aVepidermis
p768
aVlandslide
p769
aVpolymer
p770
aVhabitat
p771
aVloss
p772
aVmucus
p773
aVsoil
p774
aVcluster
p775
aVscavenger
p776
aVprotein
p777
aVtechnology
p778
aVbinary
p779
aVlava
p780
aVnewtons
p781
aVsecond
p782
aVmotion
p783
aVneritic
p784
aVnoble
p785
aVplankton
p786
aVnephron
p787
aVnonpoint-source
p788
aVpollution
p789
aVfruit
p790
aVelectromagnetism
p791
aVsinkhole
p792
aVbreeze
p793
aVrelief
p794
aVcoordinate
p795
aVmodel
p796
aVbenthos
p797
aVanemometer
p798
aVtarget
p799
aVcell
p800
aVstroma
p801
aVdehydration
p802
aVtouch
p803
aVspeed
p804
aVsmooth
p805
aVmuscle
p806
aVrefrigerant
p807
aVasthma
p808
aVmechanical
p809
aVenergy
p810
aVrose
p811
aVmeteorite
p812
aVtreatment
p813
aVkeystone
p814
aVspecies
p815
aVpupa
p816
aVmomentum
p817
aVaphotic
p818
aVkingdom
p819
aVperiosteum
p820
aVdark
p821
aValga
p822
aValgae,
p823
aVplural
p824
aVdecomposer
p825
aVwindbreak
p826
aVmudslide
p827
aVfossils
p828
aVnutrients
p829
aVchordate
p830
aVlight
p831
aVmicroscope
p832
aVlightning
p833
aVmacronutrient
p834
aVchamber
p835
aVinclined
p836
aVplane
p837
aVvestigial
p838
aVstructure
p839
aVstationary
p840
aVflammability
p841
aVmesozoic
p842
aVcompetition
p843
aVnucleic
p844
aVmagma
p845
aVbuoyancy
p846
aVgenetics
p847
aVconvergent
p848
aVevolution
p849
aVnewton
p850
aVparallel
p851
aVcircuit
p852
aVlunar
p853
aVorgan
p854
aVsystem
p855
aVclimax
p856
aVcommunity
p857
aVpassive
p858
aVtransport
p859
aVovulation
p860
aVprosimian
p861
aVkeratin
p862
aVparalysis
p863
aVtumor
p864
aVhypothalamus
p865
aVantibody
p866
aVreplacement
p867
aVreaction
p868
aVimplantation
p869
aVactive
p870
aVtransport
p871
aVspreading
p872
aVupwelling
p873
aVbreakwater
p874
aVstatic
p875
aVdischarge
p876
aVstrip
p877
aVsymbiosis
p878
aVscientific
p879
aVtheory
p880
aVvalley
p881
aVfish
p882
aVvertebra
p883
aVvertebrae,
p884
aVplural
p885
aVspecies
p886
aVsingular
p887
aVplural
p888
aVlymph
p889
aVuniversal
p890
aVgravitation
p891
aVcharless
p892
aVasexual
p893
aVreproduction
p894
aVossification
p895
aVwhite
p896
aVblood
p897
aVcell
p898
aVsounder
p899
aVliquefy
p900
aVdeep
p901
aVlichen
p902
aVplanets
p903
aVechinoderm
p904
aVwatt
p905
aVacid
p906
aVimmunity
p907
aVpolar
p908
aVdead
p909
aVzone
p910
aVunsaturated
p911
aVhydrocarbon
p912
aVdrift
p913
aVnucleus
p914
aVcondensation
p915
aVpollution
p916
aVgenus
p917
aVgenera,
p918
aVplural
p919
aVexcretion
p920
aVmass
p921
aVepithelial
p922
aVtissue
p923
aVnutrient
p924
aVovary
p925
aVbioluminescence
p926
aVallergy
p927
aVtectonics
p928
aVosteoporosis
p929
aVsemiconductor
p930
aVsweat
p931
aVgland
p932
aVcrest
p933
aVmammary
p934
aVgland
p935
aVcapillary
p936
aVsubsoil
p937
aVzygote
p938
aVtrench
p939
aVsand
p940
aVplant
p941
aVkingdom
p942
aVmammal
p943
aVelectric
p944
aVpower
p945
aVenergy
p946
aVconversion
p947
aVmetaphase
p948
aVrate
p949
aVgonad
p950
aVbarrier
p951
aVcrust
p952
aVcentral
p953
aVnervous
p954
aVsystem
p955
aVsimple
p956
aVdiffusion
p957
aVmovement
p958
aVtechnological
p959
aVdesign
p960
aVsegmentation
p961
aVgametophyte
p962
aVamniotic
p963
aVgalilean
p964
aVseafloor
p965
aVcoriolis
p966
aVphotic
p967
aVzone
p968
aVgreenhouse
p969
aVeffect
p970
aVperiodic
p971
aVmilky
p972
aVrunoff
p973
aVcap-and-trade
p974
aVfamily
p975
aVvascular
p976
aVtissue
p977
aVnuclear
p978
aVfission
p979
aValgal
p980
aVbloom
p981
aVinorganic
p982
aVextinction
p983
aVpseudopod
p984
aVfood
p985
aVallergy
p986
aVcell
p987
aVtheory
p988
aVseismograph
p989
aVnonrenewable
p990
aVresource
p991
aVcoral
p992
aVreef
p993
aVweathering
p994
aVprimate
p995
aVscience
p996
aVprotein
p997
aVsynthesis
p998
aVbinomial
p999
aVnomenclature
p1000
aVstates
p1001
aVmetamorphosis
p1002
aVpond
p1003
aVspecies
p1004
aVaxis
p1005
aVterrestrial
p1006
aVinformation
p1007
aVpascal
p1008
aVterrestrial
p1009
aVbiome
p1010
aVseismometer
p1011
aVdigestive
p1012
aVsystem
p1013
aVplant
p1014
aVsound
p1015
aVenergy
p1016
aVblood
p1017
aVwaves
p1018
aVmendel
p1019
aVethics
p1020
aVresponse
p1021
aVbiogeochemical
p1022
aVcycle
p1023
aVgeographic
p1024
aVcarbohydrates
p1025
aVanticyclone
p1026
aVtaxonomy
p1027
aVbuoyant
p1028
aVforce
p1029
aVurine
p1030
aVradar
p1031
aVthermal
p1032
aVphysical
p1033
aVscience
p1034
aVkinetic
p1035
aVreactant
p1036
aVfissure
p1037
aVurinary
p1038
aVtract
p1039
aVinfection
p1040
aVfood
p1041
aVchain
p1042
aVepididymis
p1043
aVsixth
p1044
aVmass
p1045
aVextinction
p1046
aVterritorial
p1047
aVlaterite
p1048
aVfood
p1049
aVtaxon
p1050
aVtaxa,
p1051
aVplural
p1052
aVmagnetic
p1053
aVfield
p1054
aVpredator
p1055
aVblood
p1056
aVclot
p1057
aVprimary
p1058
aVabrasion
p1059
aVcompound
p1060
aVnekton
p1061
aVbone
p1062
aVmarrow
p1063
aVpollinator
p1064
aVconic
p1065
aVendoskeleton
p1066
aVmonsoon
p1067
aVmechanical
p1068
aVdigestion
p1069
aVweight
p1070
aVenergy
p1071
aVnotochord
p1072
aVcemented
p1073
aVflower
p1074
aVeardrum
p1075
aVprotist
p1076
aVkingdom
p1077
aVcyclone
p1078
aVdeoxyribonucleic
p1079
aVmarine
p1080
aVbiome
p1081
aVfiber
p1082
aVsolvent
p1083
aVdune
p1084
aVbase
p1085
aVconditioning
p1086
aVmyofibril
p1087
aVepicenter
p1088
aVprotist
p1089
aVrainforest
p1090
aVcilium
p1091
aVcilia,
p1092
aVplural
p1093
aVnumber
p1094
aVgenital
p1095
aVherpes
p1096
aVtemperature
p1097
aVprokaryote
p1098
aVthyroid
p1099
aVgland
p1100
aVstation
p1101
aVstorm
p1102
aVxerophyte
p1103
aVventricle
p1104
aVmethanogen
p1105
aVfossil
p1106
aVfuel
p1107
aVurinary
p1108
aVbladder
p1109
aVmicronutrient
p1110
aVsaturated
p1111
aVhydrocarbon
p1112
aVtranslation
p1113
aVdiffusion
p1114
aValternating
p1115
aVcurrent
p1116
aVcnidarian
p1117
aVsolar
p1118
aVenergy
p1119
aVphagocyte
p1120
aVionic
p1121
aVcompound
p1122
aVcyanobacteria
p1123
aVhomozygote
p1124
aVconcentration
p1125
aVtestis
p1126
aVtestes,
p1127
aVplural
p1128
aVcave
p1129
aVumbra
p1130
aVsteppe
p1131
aVdependent
p1132
aVvariable
p1133
aVsupervolcano
p1134
aVgill
p1135
aVradioisotope
p1136
aVeruption
p1137
aVskeletal
p1138
aVmuscle
p1139
aVvirus
p1140
aVcell
p1141
aVcycle
p1142
aVnonpolar
p1143
aVmineral
p1144
aVcover
p1145
aVnatural
p1146
aVselection
p1147
aVvelocity
p1148
aVorganism
p1149
aVhumid
p1150
aVevaporation
p1151
aVgiant
p1152
aVepiphyte
p1153
aVphotoautotroph
p1154
aVcombustion
p1155
aVreaction
p1156
aVenzyme
p1157
aVfactor
p1158
aVdarwin
p1159
aVlymph
p1160
aVnode
p1161
aVelectrical
p1162
aVenergy
p1163
aVdominant
p1164
aVhair
p1165
aVfollicle
p1166
aVdependent
p1167
aVmutualism
p1168
aVsmall
p1169
aVintestine
p1170
aVallergen
p1171
aVskeletal
p1172
aVsystem
p1173
aVactivity
p1174
aVsustainable
p1175
aVriver
p1176
aVtranspiration
p1177
aVmigration
p1178
aValveolus
p1179
aValveoli,
p1180
aVplural
p1181
aVgeologic
p1182
aVconstellation
p1183
aVcontour
p1184
aVdwarf
p1185
aVpneumonia
p1186
aVnuclear
p1187
aVenergy
p1188
aVsecondary
p1189
aVsuccession
p1190
aVplatelet
p1191
aVhomeostasis
p1192
aVwave
p1193
aVspeed
p1194
aVthymus
p1195
aVgland
p1196
aVcarrying
p1197
aVcapacity
p1198
aVinertia
p1199
aVreverse
p1200
aVmagnetic
p1201
aVpole
p1202
aVabsorption
p1203
aVcentral
p1204
aVvacuole
p1205
aVpoint
p1206
aVloam
p1207
aVrecycling
p1208
aVproton
p1209
aVadaptation
p1210
aVesophagus
p1211
aVbelt
p1212
aVvertebrate
p1213
aVsporophyte
p1214
aVintrusive
p1215
aVtype
p1216
aVdiabetes
p1217
aVtype
p1218
aVdiabetes
p1219
aVplacental
p1220
aVmammal
p1221
aVprecision
p1222
aVpulmonary
p1223
aVcirculation
p1224
aVvane
p1225
aVliver
p1226
aVhardness
p1227
aVkelvin
p1228
aVscale
p1229
aVsolid
p1230
aVchemical
p1231
aVdigestion
p1232
aVrichter
p1233
aVamniote
p1234
aVextremophile
p1235
aVpetal
p1236
aVbipedal
p1237
aVconfining
p1238
aVcerebrum
p1239
aVurethra
p1240
aVdrug
p1241
aVabuse
p1242
aVage-sex
p1243
aVstructure
p1244
aVcumulus
p1245
aVdermis
p1246
aVscientific
p1247
aVmethod
p1248
aVterrae
p1249
aVneutron
p1250
aVdevelopment
p1251
aVdirect
p1252
aVcurrent
p1253
aVmoment
p1254
aVprecycling
p1255
aVpioneer
p1256
aVspecies
p1257
aVelectric
p1258
aVtransformer
p1259
aVstack
p1260
aVphotic
p1261
aVunconformity
p1262
aVchemistry
p1263
aVpollen
p1264
aVframe
p1265
aVreference
p1266
aVamontons
p1267
aVatomic
p1268
aVboyles
p1269
aVcontinent
p1270
aVomnivore
p1271
aVwave
p1272
aVamplitude
p1273
aVtropism
p1274
aVthylakoid
p1275
aVsource
p1276
aVplateau
p1277
aVblastocyst
p1278
aVovipary
p1279
aVfieldwork
p1280
aVaquatic
p1281
aVplant
p1282
aVprecipitation
p1283
aVcarbon-14
p1284
aVbiochemical
p1285
aVreaction
p1286
aVhomologous
p1287
aVchromosomes
p1288
aVendothermic
p1289
aVreaction
p1290
aVmoraine
p1291
aVecology
p1292
aVexcretory
p1293
aVsystem
p1294
aVspring
p1295
aVtaste
p1296
aVozone
p1297
aVscale
p1298
aVaerobic
p1299
aVtsunami
p1300
aVdating
p1301
aVatrium
p1302
aVatria,
p1303
aVplural
p1304
aVstanding
p1305
aVwave
p1306
aVstem
p1307
aVbone
p1308
aVfracture
p1309
aVdormant
p1310
aVrange
p1311
aVnervous
p1312
aVtissue
p1313
aVheart
p1314
aVattack
p1315
aVgamma
p1316
aVpollution
p1317
aVnewtons
p1318
aVfirst
p1319
aVmotion
p1320
aVelasticity
p1321
aVrespiratory
p1322
aVsystem
p1323
aVmitosis
p1324
aVcell
p1325
aVdivision
p1326
aVbiochemical
p1327
aVcompound
p1328
aVspawning
p1329
aVpopulation
p1330
aVgrowth
p1331
aVrate
p1332
aVretina
p1333
aVslump
p1334
aVhail
p1335
aVatom
p1336
aVhuman
p1337
aVpapilloma
p1338
aVvirus
p1339
aVprophase
p1340
aVplanet
p1341
aVchemoautotroph
p1342
aVestrogen
p1343
aVacidity
p1344
aVkidney
p1345
aVsurface
p1346
aVwave
p1347
aVimage
p1348
aVmetallic
p1349
aVbond
p1350
aVgenome
p1351
aVamphibian
p1352
aVnitrogen
p1353
aVcycle
p1354
aVelectromagnetic
p1355
aVwave
p1356
aVsublimation
p1357
aVantibiotic
p1358
aVdrug
p1359
aVlens
p1360
aVinsect
p1361
aVbrain
p1362
aVstem
p1363
aVtrophic
p1364
aVlevel
p1365
aVcaldera
p1366
aVdesert
p1367
aVland
p1368
aVelectromagnet
p1369
aVconsumer
p1370
aVgenetically
p1371
aVmodified
p1372
aVorganism
p1373
aVdiffraction
p1374
aVorbit
p1375
aVaphotic
p1376
aVzone
p1377
aVuterus
p1378
aVhypha
p1379
aVhyphae,
p1380
aVplural
p1381
aVgamete
p1382
aVfungus
p1383
aVfungi,
p1384
aVplural
p1385
aVlysosome
p1386
aVresistance
p1387
aVmonomer
p1388
aVeukaryote
p1389
aVstable
p1390
aVingredient
p1391
aVvilli
p1392
aVvillus,
p1393
aVsingular
p1394
aVseries
p1395
aVcircuit
p1396
aVwave
p1397
aVelectron
p1398
aVtrough
p1399
aVartery
p1400
aVacquired
p1401
aVimmunodeficiency
p1402
aVsyndrome
p1403
aVaids
p1404
aVtransmission
p1405
aVrace
p1406
aVradio
p1407
aVobesity
p1408
aVoptics
p1409
aVcardiovascular
p1410
aVsystem
p1411
aVglobal
p1412
aVclimate
p1413
aVchange
p1414
aVantigen
p1415
aVmediterranean
p1416
aVbiomass
p1417
aVcrop
p1418
aVaquifer
p1419
aVfold
p1420
aVacid
p1421
aVhygrometer
p1422
aVindex
p1423
aVfungus
p1424
aVkingdom
p1425
aVpower
p1426
aVopaque
p1427
aVbiomass
p1428
aVenergy
p1429
aVhabituation
p1430
aVgeologic
p1431
aVtime
p1432
aVscale
p1433
aVcell
p1434
aVexperiment
p1435
aVbird
p1436
aVbody
p1437
aVfertilization
p1438
aVsex-linked
p1439
aVtrait
p1440
aVpedalfer
p1441
aVsolute
p1442
aVmedusa
p1443
aVmedusae,
p1444
aVplural
p1445
aVsegregation
p1446
aVgreat
p1447
aVbiodiversity
p1448
aVrespiration
p1449
aVthermal
p1450
aVenergy
p1451
aVperistalsis
p1452
aVscientific
p1453
aVblizzard
p1454
aVtrachea
p1455
aVkuiper
p1456
aVligament
p1457
aVgamma
p1458
aVcloud
p1459
aVanaphase
p1460
aVgrazer
p1461
aVphysics
p1462
aVsaltation
p1463
aVasteroid
p1464
aVhumus
p1465
aVfloodplain
p1466
aVvesicle
p1467
aVcarrying
p1468
aVpenis
p1469
aVpollutant
p1470
aVreaction
p1471
aVrate
p1472
aVisland
p1473
aVovovivipary
p1474
aVcontrol
p1475
aVwedge
p1476
aVslip
p1477
aVsurge
p1478
aVmuscle
p1479
aVtissue
p1480
aVforest
p1481
aVanimal
p1482
aVelliptical
p1483
aVfootwall
p1484
aVdermal
p1485
aVtissue
p1486
aVluster
p1487
aVprofile
p1488
aVtension
p1489
aVthunderstorm
p1490
aVmeiosis
p1491
aVcenozoic
p1492
aVlight
p1493
aVlines
p1494
aVelement
p1495
aVmid-ocean
p1496
aVapplied
p1497
aVscience
p1498
aValloy
p1499
aVphagocytosis
p1500
aVpaleozoic
p1501
aVproducer
p1502
aVastronomical
p1503
aVcompass
p1504
aVsperm
p1505
aVgalaxy
p1506
aVouter
p1507
aVelectromagnetic
p1508
aVradiation
p1509
aVcommunication
p1510
aVlatitude
p1511
aVrefracting
p1512
aValkene
p1513
aVtopsoil
p1514
aVfront
p1515
aVrotation
p1516
aVtransparent
p1517
aVconcave
p1518
aVterracing
p1519
aVmagnitude
p1520
aVcocoon
p1521
aVblood
p1522
aVvessel
p1523
aVfrequency
p1524
aVmollusk
p1525
aVsemen
p1526
aVmain
p1527
aVingredient
p1528
aVvalve
p1529
aVsmog
p1530
aVinduction
p1531
aVthermal
p1532
aVinsulator
p1533
aVcovalent
p1534
aVcompound
p1535
aVleukemia
p1536
aVgeostationary
p1537
aVindependent
p1538
aVassortment
p1539
aVwater
p1540
aVcycle
p1541
aVimmune
p1542
aVresponse
p1543
aVorganic
p1544
aVbiosphere
p1545
aValkyne
p1546
aVembryo
p1547
aVspecific
p1548
aVheat
p1549
aVecho
p1550
aVspinal
p1551
aVcord
p1552
aVarchaean
p1553
aVquality
p1554
aVmagnetic
p1555
aVforce
p1556
aVinflammation
p1557
aVvagina
p1558
aVtransverse
p1559
aVwave
p1560
aVwind
p1561
aVenergy
p1562
aVpathogen
p1563
aVhydrosphere
p1564
aVstomach
p1565
aVshelf
p1566
aVnoninfectious
p1567
aVdisease
p1568
aVfoliation
p1569
aVreflecting
p1570
aVbioaccumulation
p1571
aVelectric
p1572
aVcharge
p1573
aVamplitude
p1574
aVelectron
p1575
aVtransport
p1576
aVfermentation
p1577
aVcytoplasm
p1578
aVphytoplankton
p1579
aVtide
p1580
aVacceleration
p1581
aVscrew
p1582
aVprimary
p1583
aVcolor
p1584
aVcompacted
p1585
aVphotosphere
p1586
aVbiotic
p1587
aVfactor
p1588
aVaccuracy
p1589
aVfossilization
p1590
aVflagellum
p1591
aVflagella,
p1592
aVplural
p1593
aVclass
p1594
aVtopographic
p1595
aVspleen
p1596
aVrelative
p1597
aVdating
p1598
aVmechanical
p1599
aVatmosphere
p1600
aVmetamorphism
p1601
aVmercalli
p1602
aVelimination
p1603
aVgreenhouse
p1604
aVcarcinogen
p1605
aVgiants
p1606
aVaquatic
p1607
aVbiome
p1608
aVinfrasound
p1609
aVfuel
p1610
aVlocal
p1611
aVequilibrium
p1612
aVpenumbra
p1613
aVstarch
p1614
aVabiotic
p1615
aVjoint
p1616
aVcommunity
p1617
aVmonocline
p1618
aVgeneralist
p1619
aVevolution
p1620
aVorgan
p1621
aVcleavage
p1622
aVnatural
p1623
aVresource
p1624
aVhydrocarbons
p1625
aVtransport
p1626
aVprotein
p1627
aVintensity
p1628
aVwetland
p1629
aVelectromagnetic
p1630
aVenergy
p1631
aVpituitary
p1632
aVgland
p1633
aVnuclear
p1634
aVnebula
p1635
aVboundary
p1636
aVgemstone
p1637
aVexplosive
p1638
aVexotic
p1639
aVspecies
p1640
aVindependent
p1641
aVvariable
p1642
aVstoma
p1643
aVstomata,
p1644
aVplural
p1645
aVefficiency
p1646
aVhypothesis
p1647
aVbiological
p1648
aVclock
p1649
aVprotozoan
p1650
aVprotozoa,
p1651
aVplural
p1652
aVsediments
p1653
aVdecay
p1654
aVrefraction
p1655
aVcinder
p1656
aVwall
p1657
aVtable
p1658
aVanticline
p1659
aVvertebral
p1660
aVcolumn
p1661
aVobservational
p1662
aVlearning
p1663
aVvisible
p1664
aVlight
p1665
aVwaste
p1666
aVfield
p1667
aVchlamydia
p1668
aVpuberty
p1669
aVangiosperm
p1670
aVchemical
p1671
aVreaction
p1672
aVendoplasmic
p1673
aVreticulum
p1674
aVlake-effect
p1675
aVlaser
p1676
aVplain
p1677
aVelectron
p1678
aVmicroscope
p1679
aVpedocal
p1680
aVcompact
p1681
aVbone
p1682
aVpredation
p1683
aVgroin
p1684
aVforce
p1685
aVneuron
p1686
aVsurface
p1687
aVmeteoroid
p1688
aVconvection
p1689
aVorbital
p1690
aVribosome
p1691
aVradiation
p1692
aVshuttle
p1693
aVnervous
p1694
aVsystem
p1695
aVstamen
p1696
aVeffect
p1697
aVwarming
p1698
aVdiabetes
p1699
aVreflection
p1700
aVpolyp
p1701
aVwell
p1702
aVconvection
p1703
aVcurrent
p1704
aVchemical
p1705
aVformula
p1706
aVmuscle
p1707
aVmelanocyte
p1708
aVrocket
p1709
aVvoltage
p1710
aVdensity
p1711
aVstratus
p1712
aVdemographic
p1713
aVlake
p1714
aVstratigraphy
p1715
aVplacenta
p1716
aVmycelium
p1717
aVmycelia,
p1718
aVplural
p1719
aVparasite
p1720
aValkali
p1721
aVeukaryotic
p1722
aVcell
p1723
aVkrebs
p1724
aVcycle
p1725
aVtroposphere
p1726
aVsprain
p1727
aVphylum
p1728
aVphyla,
p1729
aVplural
p1730
aVhabitat
p1731
aVsequence
p1732
aVchemical
p1733
aVequation
p1734
aVelectric
p1735
aVcurrent
p1736
aVmyplate
p1737
aVgrowth
p1738
aVconvex
p1739
aVtransport
p1740
aVleaf
p1741
aVhurricane
p1742
aVpyroclast
p1743
aVtadpole
p1744
aVmutation
p1745
aVglacial
p1746
aVincandescence
p1747
aVlipid
p1748
aVcellulose
p1749
aVperipheral
p1750
aVnervous
p1751
aVsystem
p1752
aVpressure
p1753
aVhost
p1754
aVintertidal
p1755
aVinstinct
p1756
aVgermination
p1757
aVreflection
p1758
aVtestosterone
p1759
aVuniverse
p1760
aVsebaceous
p1761
aVgland
p1762
aVp-waves
p1763
aVorganelle
p1764
aVradioactive
p1765
aVdecay
p1766
aVsweat
p1767
aVmenstrual
p1768
aVcycle
p1769
aVreptile
p1770
aVultrasound
p1771
aVweather
p1772
aVlung
p1773
aVspeciation
p1774
aVlinnaeus
p1775
aVridge
p1776
aVelastic
p1777
aVspiral
p1778
aVtrenches
p1779
aVcontinental
p1780
aVinner
p1781
aVpopulation
p1782
aVdistribution
p1783
aVhazardous
p1784
aVvolume
p1785
aVthermal
p1786
aVconductor
p1787
aVelectromagnetic
p1788
aVspectrum
p1789
aVecosystem
p1790
aVmenstruation
p1791
aVcarbohydrate
p1792
aVsubtropical
p1793
aVbenthic
p1794
aVanaerobic
p1795
aVchromosome
p1796
aVplanting
p1797
aVblood
p1798
aVcell
p1799
aVstrike-slip
p1800
aVvacuole
p1801
aVstatic
p1802
aVelectricity
p1803
aVmeteor
p1804
aVchemosynthesis
p1805
aVstar
p1806
aVgene
p1807
aVpool
p1808
aVthermal
p1809
aVpollution
p1810
aVvariation
p1811
aVgastrointestinal
p1812
aVtract
p1813
aVseismic
p1814
aVastronomy
p1815
aVvein
p1816
aVhydrogen
p1817
aVbond
p1818
aVmuscle
p1819
aVfiber
p1820
aVbiotechnology
p1821
a.